; Function Attrs: mustprogress uwtable
define internal { double, double } @_ZL16urmfps_s_inverse5PJ_XYP8PJconsts(double %0, double %1, ptr noundef readonly captures(none) %2) #0 {
  %4 = getelementptr inbounds nuw i8, ptr %2, i64 88
  %5 = load ptr, ptr %4, align 8, !tbaa !40
  %6 = getelementptr inbounds nuw i8, ptr %5, i64 8
  %7 = load double, ptr %6, align 8, !tbaa !45
  %8 = fdiv double %1, %7
  %9 = load ptr, ptr %2, align 8, !tbaa !41
  %10 = tail call double @sin(double noundef %8) #5, !tbaa !49
  %11 = load double, ptr %5, align 8, !tbaa !43
  %12 = fdiv double %10, %11
  %13 = tail call noundef double @_Z5aasinP6pj_ctxd(ptr noundef %9, double noundef %12)
  %14 = tail call double @cos(double noundef %8) #5, !tbaa !49
  %15 = fmul double %14, 0x3FEC1384D50FB212
  %16 = fdiv double %0, %15
  %.fca.0.insert = insertvalue { double, double } poison, double %16, 0
  %.fca.1.insert = insertvalue { double, double } %.fca.0.insert, double %13, 1
  ret { double, double } %.fca.1.insert
}